; Function Attrs: nounwind uwtable
define noalias nonnull ptr @l_Lean_Meta_simpAll___lambda__1(ptr noundef readonly captures(none) %0, ptr noundef %1, ptr readnone captures(none) %2, ptr readnone captures(none) %3, ptr readnone captures(none) %4, ptr readnone captures(none) %5, ptr readnone captures(none) %6, ptr noundef %7) local_unnamed_addr #0 {
  %9 = getelementptr inbounds nuw i8, ptr %0, i64 40
  %10 = load ptr, ptr %9, align 8, !tbaa !9
  %11 = getelementptr inbounds nuw i8, ptr %0, i64 48
  %12 = load ptr, ptr %11, align 8, !tbaa !9
  %13 = ptrtoint ptr %12 to i64
  %14 = and i64 %13, 1
  %.not = icmp eq i64 %14, 0
  br i1 %.not, label %15, label %lean_inc.exit17

15:                                               ; preds = %8
  %.val.i = load i32, ptr %12, align 4, !tbaa !4
  %16 = icmp sgt i32 %.val.i, 0
  br i1 %16, label %17, label %19, !prof !11

17:                                               ; preds = %15
  %18 = add nuw i32 %.val.i, 1
  store i32 %18, ptr %12, align 4, !tbaa !4
  br label %lean_inc.exit17

19:                                               ; preds = %15
  %.not.i = icmp eq i32 %.val.i, 0
  br i1 %.not.i, label %lean_inc.exit17, label %20

20:                                               ; preds = %19
  tail call void @lean_inc_ref_cold(ptr noundef nonnull %12) #4
  br label %lean_inc.exit17

lean_inc.exit17:                                  ; preds = %20, %19, %17, %8
  %21 = ptrtoint ptr %10 to i64
  %22 = and i64 %21, 1
  %.not23 = icmp eq i64 %22, 0
  br i1 %.not23, label %23, label %lean_inc.exit

23:                                               ; preds = %lean_inc.exit17
  %.val.i18 = load i32, ptr %10, align 4, !tbaa !4
  %24 = icmp sgt i32 %.val.i18, 0
  br i1 %24, label %25, label %27, !prof !11

25:                                               ; preds = %23
  %26 = add nuw i32 %.val.i18, 1
  store i32 %26, ptr %10, align 4, !tbaa !4
  br label %lean_inc.exit

27:                                               ; preds = %23
  %.not.i19 = icmp eq i32 %.val.i18, 0
  br i1 %.not.i19, label %lean_inc.exit, label %28

28:                                               ; preds = %27
  tail call void @lean_inc_ref_cold(ptr noundef nonnull %10) #4
  br label %lean_inc.exit

lean_inc.exit:                                    ; preds = %28, %27, %25, %lean_inc.exit17
  tail call void @lean_inc_heartbeat() #4
  %29 = tail call noalias ptr @mi_malloc_small(i64 noundef 24) #4
  %30 = icmp eq ptr %29, null
  br i1 %30, label %31, label %lean_alloc_ctor.exit

31:                                               ; preds = %lean_inc.exit
  tail call void @lean_internal_panic_out_of_memory() #5
  unreachable

lean_alloc_ctor.exit:                             ; preds = %lean_inc.exit
  %32 = getelementptr inbounds nuw i8, ptr %29, i64 4
  store i32 1, ptr %29, align 4, !tbaa !4
  store i32 131096, ptr %32, align 4
  %33 = getelementptr inbounds nuw i8, ptr %29, i64 8
  store ptr %10, ptr %33, align 8, !tbaa !9
  %34 = getelementptr inbounds nuw i8, ptr %29, i64 16
  store ptr %12, ptr %34, align 8, !tbaa !9
  tail call void @lean_inc_heartbeat() #4
  %35 = tail call noalias ptr @mi_malloc_small(i64 noundef 24) #4
  %36 = icmp eq ptr %35, null
  br i1 %36, label %37, label %lean_alloc_ctor.exit21

37:                                               ; preds = %lean_alloc_ctor.exit
  tail call void @lean_internal_panic_out_of_memory() #5
  unreachable

lean_alloc_ctor.exit21:                           ; preds = %lean_alloc_ctor.exit
  %38 = getelementptr inbounds nuw i8, ptr %35, i64 4
  store i32 1, ptr %35, align 4, !tbaa !4
  store i32 131096, ptr %38, align 4
  %39 = getelementptr inbounds nuw i8, ptr %35, i64 8
  store ptr %1, ptr %39, align 8, !tbaa !9
  %40 = getelementptr inbounds nuw i8, ptr %35, i64 16
  store ptr %29, ptr %40, align 8, !tbaa !9
  tail call void @lean_inc_heartbeat() #4
  %41 = tail call noalias ptr @mi_malloc_small(i64 noundef 24) #4
  %42 = icmp eq ptr %41, null
  br i1 %42, label %43, label %lean_alloc_ctor.exit22

43:                                               ; preds = %lean_alloc_ctor.exit21
  tail call void @lean_internal_panic_out_of_memory() #5
  unreachable

lean_alloc_ctor.exit22:                           ; preds = %lean_alloc_ctor.exit21
  %44 = getelementptr inbounds nuw i8, ptr %41, i64 4
  store i32 1, ptr %41, align 4, !tbaa !4
  store i32 131096, ptr %44, align 4
  %45 = getelementptr inbounds nuw i8, ptr %41, i64 8
  store ptr %35, ptr %45, align 8, !tbaa !9
  %46 = getelementptr inbounds nuw i8, ptr %41, i64 16
  store ptr %7, ptr %46, align 8, !tbaa !9
  ret ptr %41
}